Certificate:
    Data:
        Version: 3 (0x2)
        Serial Number:
            08:96:0c:0e:a9:0f:f5:41:bc:22:1e:a1:c4:51:2e:bb
    Signature Algorithm: sha256WithRSAEncryption
        Issuer: CN=vpn.my.fqdn
        Validity
            Not Before: Feb  3 01:11:58 2019 GMT
            Not After : Jan 31 01:11:58 2029 GMT
        Subject: CN=vpn.my.fqdn
        Subject Public Key Info:
            Public Key Algorithm: rsaEncryption
                Public-Key: (2048 bit)
                Modulus:
                    00:c5:f3:d4:31:77:5f:50:e6:4f:97:4f:24:3e:46:
                    80:61:27:f4:d2:dc:3b:90:07:2e:ca:24:21:8c:fc:
                    1c:d8:76:b3:df:c4:1c:c3:07:4a:e7:3f:51:9f:68:
                    45:84:0a:91:51:98:59:9f:ac:f7:fc:34:ef:13:0a:
                    35:67:92:68:92:a1:b4:e3:e8:01:92:ef:76:5e:ca:
                    85:fd:de:5a:f0:3e:88:7b:2f:bf:11:a1:c2:c0:b6:
                    24:9e:e1:7a:7f:f3:f6:4e:d8:be:9e:76:d2:2a:bb:
                    97:a7:ef:62:fd:cc:35:7a:92:9d:ae:df:9c:48:de:
                    54:60:18:a3:29:26:b5:1e:5c:0f:3a:22:e5:a8:9c:
                    af:26:5b:9b:b8:1e:4d:33:38:32:3a:bc:ba:1a:65:
                    1a:8a:de:47:eb:7d:18:d7:13:bf:db:65:e3:89:ab:
                    2b:36:39:d1:e0:bb:1a:a4:1c:c7:b6:3e:a8:d6:d1:
                    0e:74:5d:de:2d:54:ce:9a:b0:8e:cb:9d:07:e1:5d:
                    6d:77:0a:33:b9:80:47:f2:3e:7f:56:af:40:af:03:
                    ef:26:85:1f:b3:f1:24:89:e3:69:bb:69:55:8c:30:
                    df:b4:7e:b0:5e:aa:99:92:c9:8c:05:c2:47:3d:87:
                    9e:80:51:3b:73:e8:62:8e:f6:26:d2:61:a3:f3:83:
                    85:83
                Exponent: 65537 (0x10001)
        X509v3 extensions:
            X509v3 Basic Constraints: 
                CA:FALSE
            X509v3 Subject Key Identifier: 
                B5:05:9D:E4:8E:D9:C2:64:77:F8:16:E9:DD:47:B7:32:B9:08:2B:D1
            X509v3 Authority Key Identifier: 
                keyid:40:1D:79:32:94:29:E9:1C:6D:0D:C1:8D:B1:BA:C1:FA:87:40:86:4F
                DirName:/CN=vpn.my.fqdn
                serial:A3:6F:1A:C0:28:94:C8:74

            X509v3 Extended Key Usage: 
                TLS Web Server Authentication
            X509v3 Key Usage: 
                Digital Signature, Key Encipherment
            X509v3 Subject Alternative Name: 
                DNS:vpn.my.fqdn
    Signature Algorithm: sha256WithRSAEncryption
         67:9b:34:04:69:46:89:0f:a7:bf:56:1a:5a:be:1c:ce:4a:bc:
         43:dc:d7:87:d0:4b:2d:59:ea:26:58:08:94:d4:52:91:06:02:
         4f:de:c7:bb:97:ac:38:3f:74:fe:dc:6b:93:b9:d5:8a:af:dc:
         d1:44:97:bb:86:97:58:b9:3e:bb:fd:e3:85:69:5f:cf:38:74:
         c5:6d:12:39:f4:a3:d9:ef:9f:56:45:ec:ea:db:90:a9:a4:90:
         5b:56:fc:3f:f2:a0:2e:0f:58:37:77:75:ce:e5:d6:c6:ce:fd:
         c3:68:20:f7:6b:d4:e8:35:04:b9:90:ad:e3:e7:2e:9a:20:ba:
         b1:1c:ca:27:35:46:f3:7f:97:87:da:95:e1:08:22:47:94:49:
         67:eb:ed:92:aa:1e:36:38:dd:a5:15:2d:d7:8a:cb:73:fa:e1:
         65:84:85:7e:92:58:74:96:d6:92:d4:57:fc:d1:f6:55:d5:29:
         f4:dd:67:b4:5a:f2:be:1c:72:0c:dc:e0:94:bd:1c:0e:08:f7:
         58:9b:5b:fe:17:14:8e:87:34:7f:1c:c8:48:49:84:c0:d6:be:
         18:28:a6:5d:26:62:18:ba:c8:25:69:b4:a6:e7:90:c8:c0:97:
         33:4d:a9:14:6c:ee:11:26:48:c9:16:6f:95:42:db:b9:02:0a:
         18:6c:f8:4d
-----BEGIN CERTIFICATE-----
MIIDZjCCAk6gAwIBAgIQCJYMDqkP9UG8Ih6hxFEuuzANBgkqhkiG9w0BAQsFADAW
MRQwEgYDVQQDDAt2cG4ubXkuZnFkbjAeFw0xOTAyMDMwMTExNThaFw0yOTAxMzEw
MTExNThaMBYxFDASBgNVBAMMC3Zwbi5teS5mcWRuMIIBIjANBgkqhkiG9w0BAQEF
AAOCAQ8AMIIBCgKCAQEAxfPUMXdfUOZPl08kPkaAYSf00tw7kAcuyiQhjPwc2Haz
38QcwwdK5z9Rn2hFhAqRUZhZn6z3/DTvEwo1Z5JokqG04+gBku92XsqF/d5a8D6I
ey+/EaHCwLYknuF6f/P2Tti+nnbSKruXp+9i/cw1epKdrt+cSN5UYBijKSa1HlwP
OiLlqJyvJlubuB5NMzgyOry6GmUait5H630Y1xO/22XjiasrNjnR4LsapBzHtj6o
1tEOdF3eLVTOmrCOy50H4V1tdwozuYBH8j5/Vq9ArwPvJoUfs/EkieNpu2lVjDDf
tH6wXqqZksmMBcJHPYeegFE7c+hijvYm0mGj84OFgwIDAQABo4GvMIGsMAkGA1Ud
EwQCMAAwHQYDVR0OBBYEFLUFneSO2cJkd/gW6d1HtzK5CCvRMEYGA1UdIwQ/MD2A
FEAdeTKUKekcbQ3BjbG6wfqHQIZPoRqkGDAWMRQwEgYDVQQDDAt2cG4ubXkuZnFk
boIJAKNvGsAolMh0MBMGA1UdJQQMMAoGCCsGAQUFBwMBMAsGA1UdDwQEAwIFoDAW
BgNVHREEDzANggt2cG4ubXkuZnFkbjANBgkqhkiG9w0BAQsFAAOCAQEAZ5s0BGlG
iQ+nv1YaWr4czkq8Q9zXh9BLLVnqJlgIlNRSkQYCT97Hu5esOD90/txrk7nViq/c
0USXu4aXWLk+u/3jhWlfzzh0xW0SOfSj2e+fVkXs6tuQqaSQW1b8P/KgLg9YN3d1
zuXWxs79w2gg92vU6DUEuZCt4+cumiC6sRzKJzVG83+Xh9qV4QgiR5RJZ+vtkqoe
NjjdpRUt14rLc/rhZYSFfpJYdJbWktRX/NH2VdUp9N1ntFryvhxyDNzglL0cDgj3
WJtb/hcUjoc0fxzISEmEwNa+GCimXSZiGLrIJWm0pueQyMCXM02pFGzuESZIyRZv
lULbuQIKGGz4TQ==
-----END CERTIFICATE-----
